; Function Attrs: mustprogress uwtable
define void @_ZN15TCPStreamDialog32on_actionRoundTripTime_triggeredEv(ptr nocapture noundef nonnull readonly align 8 dereferenceable(584) %0) local_unnamed_addr #2 align 2 personality ptr @__gxx_personality_v0 {
  %2 = alloca %class.QVariant, align 8
  %3 = getelementptr inbounds i8, ptr %0, i64 64
  %4 = load ptr, ptr %3, align 8
  %5 = getelementptr inbounds i8, ptr %4, i64 264
  %6 = load ptr, ptr %5, align 8
  call void @_ZN8QVariantC1Ei(ptr noundef nonnull align 8 dereferenceable(32) %2, i32 noundef 3)
  %7 = invoke noundef i32 @_ZNK9QComboBox8findDataERK8QVarianti6QFlagsIN2Qt9MatchFlagEE(ptr noundef nonnull align 8 dereferenceable(40) %6, ptr noundef nonnull align 8 dereferenceable(32) %2, i32 noundef 256, i32 16)
          to label %8 unwind label %10

8:                                                ; preds = %1
  invoke void @_ZN9QComboBox15setCurrentIndexEi(ptr noundef nonnull align 8 dereferenceable(40) %6, i32 noundef %7)
          to label %9 unwind label %10

9:                                                ; preds = %8
  call void @_ZN8QVariantD1Ev(ptr noundef nonnull align 8 dereferenceable(32) %2) #24
  ret void

10:                                               ; preds = %8, %1
  %11 = landingpad { ptr, i32 }
          cleanup
  call void @_ZN8QVariantD1Ev(ptr noundef nonnull align 8 dereferenceable(32) %2) #24
  resume { ptr, i32 } %11
}